; Function Attrs: nounwind sspstrong uwtable
define hidden i64 @rb_keyword_error_new(ptr noundef %0, i64 noundef %1) local_unnamed_addr #0 {
  %3 = inttoptr i64 %1 to ptr
  %4 = load i64, ptr %3, align 8, !tbaa !35
  %5 = and i64 %4, 8192
  %.not.i = icmp eq i64 %5, 0
  br i1 %.not.i, label %9, label %6

6:                                                ; preds = %2
  %7 = lshr i64 %4, 15
  %8 = and i64 %7, 127
  br label %rb_array_len.exit

9:                                                ; preds = %2
  %10 = getelementptr inbounds nuw i8, ptr %3, i64 16
  %11 = load i64, ptr %10, align 8, !tbaa !32
  br label %rb_array_len.exit

rb_array_len.exit:                                ; preds = %6, %9
  %.0.i = phi i64 [ %8, %6 ], [ %11, %9 ]
  %12 = icmp sgt i64 %.0.i, 1
  %13 = zext i1 %12 to i32
  %14 = tail call i64 (ptr, ...) @rb_sprintf(ptr noundef nonnull @.str.24, ptr noundef %0, i32 noundef %13, ptr noundef nonnull @.str.25) #19
  %15 = icmp sgt i64 %.0.i, 0
  br i1 %15, label %16, label %.thread

16:                                               ; preds = %rb_array_len.exit
  %17 = tail call i64 @rb_str_cat(i64 noundef %14, ptr noundef nonnull @.str.26, i64 noundef 2) #19
  %18 = getelementptr inbounds nuw i8, ptr %3, i64 16
  %19 = getelementptr inbounds nuw i8, ptr %3, i64 32
  %20 = add nsw i64 %.0.i, -1
  br label %21

21:                                               ; preds = %30, %16
  %.013 = phi i64 [ 0, %16 ], [ %31, %30 ]
  %22 = load i64, ptr %3, align 8, !tbaa !35
  %23 = and i64 %22, 8192
  %.not.i.i = icmp eq i64 %23, 0
  br i1 %.not.i.i, label %24, label %RARRAY_AREF.exit

24:                                               ; preds = %21
  %25 = load ptr, ptr %19, align 8, !tbaa !32
  br label %RARRAY_AREF.exit

RARRAY_AREF.exit:                                 ; preds = %21, %24
  %.0.i.i = phi ptr [ %25, %24 ], [ %18, %21 ]
  %26 = getelementptr i64, ptr %.0.i.i, i64 %.013
  %27 = load i64, ptr %26, align 8, !tbaa !29
  %28 = tail call i64 @rb_inspect(i64 noundef %27) #19
  %29 = tail call i64 @rb_str_append(i64 noundef %14, i64 noundef %28) #19
  %exitcond.not = icmp eq i64 %.013, %20
  br i1 %exitcond.not, label %.thread, label %30

30:                                               ; preds = %RARRAY_AREF.exit
  %31 = add nuw nsw i64 %.013, 1
  %32 = tail call i64 @rb_str_cat(i64 noundef %14, ptr noundef nonnull @.str.27, i64 noundef 2) #19
  br label %21

.thread:                                          ; preds = %RARRAY_AREF.exit, %rb_array_len.exit
  %33 = load i64, ptr @rb_eArgError, align 8, !tbaa !29
  %34 = tail call i64 @rb_exc_new_str(i64 noundef %33, i64 noundef %14) #19
  ret i64 %34
}